(dp0
S'ACCESS_TOKEN'
p1
S'2873118326-oSIut14lqCZerQHIoNbrJBe1bMepwdvyuNqQ1VF'
p2
sS'ACCESS_SECRET'
p3
S'HTtgMDU5LKpig8kQvRyPR9u1vBLOpHyzcQwUZSLfHLJez'
p4
sS'CONSUMER_SECRET'
p5
S'mu1PybELTatH3TqGGmOq9lAxQOFn10gse9oYZvvrBuJMUp0Wjk'
p6
sS'CONSUMER_KEY'
p7
S'29nN2krn78bemDEFq2xaOV1WM'
p8
s.